target datalayout = "e-m:e-p270:32:32-p271:32:32-p272:64:64-i64:64-i128:128-f80:128-n8:16:32:64-S128"
target triple = "x86_64-pc-linux-gnu"

%"class.Ipopt::TNLPAdapter" = type { %"class.Ipopt::NLP.base", %"class.Ipopt::SmartPtr", %"class.Ipopt::SmartPtr.0", %"class.Ipopt::SmartPtr.1", double, double, i32, double, i32, double, double, i8, i32, i8, i32, i32, i32, i32, double, double, i8, double, i32, i32, i32, i32, i32, i32, i32, i32, i32, i32, %"class.Ipopt::SmartPtr.2", %"class.Ipopt::SmartPtr.2", %"class.Ipopt::SmartPtr.2", %"class.Ipopt::SmartPtr.2", %"class.Ipopt::SmartPtr.3", %"class.Ipopt::SmartPtr.2", %"class.Ipopt::SmartPtr.3", %"class.Ipopt::SmartPtr.2", %"class.Ipopt::SmartPtr.3", %"class.Ipopt::SmartPtr.2", %"class.Ipopt::SmartPtr.3", %"class.Ipopt::SmartPtr.3", %"class.Ipopt::SmartPtr.3", %"class.Ipopt::SmartPtr.4", ptr, ptr, ptr, ptr, ptr, i32, i32, i32, i32, i32, %"class.Ipopt::SmartPtr.5", %"class.Ipopt::SmartPtr.6", %"class.Ipopt::SmartPtr.5", %"class.Ipopt::SmartPtr.6", %"class.Ipopt::SmartPtr.5", %"class.Ipopt::SmartPtr.6", %"class.Ipopt::SmartPtr.6", %"class.Ipopt::SmartPtr.5", %"class.Ipopt::SmartPtr.6", %"class.Ipopt::SmartPtr.5", ptr, ptr, ptr, %"class.std::vector", %"class.std::vector", %"class.std::vector", i32, ptr, ptr, ptr, ptr, ptr }
%"class.Ipopt::NLP.base" = type { %"class.Ipopt::ReferencedObject.base" }
%"class.Ipopt::ReferencedObject.base" = type <{ ptr, i32 }>
%"class.Ipopt::SmartPtr" = type { ptr }
%"class.Ipopt::SmartPtr.0" = type { ptr }
%"class.Ipopt::SmartPtr.1" = type { ptr }
%"class.Ipopt::SmartPtr.2" = type { ptr }
%"class.Ipopt::SmartPtr.3" = type { ptr }
%"class.Ipopt::SmartPtr.4" = type { ptr }
%"class.Ipopt::SmartPtr.6" = type { ptr }
%"class.Ipopt::SmartPtr.5" = type { ptr }
%"class.std::vector" = type { %"struct.std::_Vector_base" }
%"struct.std::_Vector_base" = type { %"struct.std::_Vector_base<int, std::allocator<int>>::_Vector_impl" }
%"struct.std::_Vector_base<int, std::allocator<int>>::_Vector_impl" = type { %"struct.std::_Vector_base<int, std::allocator<int>>::_Vector_impl_data" }
%"struct.std::_Vector_base<int, std::allocator<int>>::_Vector_impl_data" = type { ptr, ptr, ptr }
%"class.Ipopt::ExpansionMatrix" = type { %"class.Ipopt::Matrix.base", ptr }
%"class.Ipopt::Matrix.base" = type <{ %"class.Ipopt::TaggedObject", %"class.Ipopt::SmartPtr.3", i32, i8 }>
%"class.Ipopt::TaggedObject" = type { %"class.Ipopt::ReferencedObject.base", %"class.Ipopt::Subject", i32, i32 }
%"class.Ipopt::Subject" = type { ptr, %"class.std::vector.58" }
%"class.std::vector.58" = type { %"struct.std::_Vector_base.59" }
%"struct.std::_Vector_base.59" = type { %"struct.std::_Vector_base<Ipopt::Observer *, std::allocator<Ipopt::Observer *>>::_Vector_impl" }
%"struct.std::_Vector_base<Ipopt::Observer *, std::allocator<Ipopt::Observer *>>::_Vector_impl" = type { %"struct.std::_Vector_base<Ipopt::Observer *, std::allocator<Ipopt::Observer *>>::_Vector_impl_data" }
%"struct.std::_Vector_base<Ipopt::Observer *, std::allocator<Ipopt::Observer *>>::_Vector_impl_data" = type { ptr, ptr, ptr }
%"class.Ipopt::ExpansionMatrixSpace" = type { %"class.Ipopt::MatrixSpace.base", ptr, ptr }
%"class.Ipopt::MatrixSpace.base" = type { %"class.Ipopt::ReferencedObject.base", i32, i32 }
%"class.Ipopt::DenseVector" = type { %"class.Ipopt::Vector.base", ptr, ptr, ptr, i8, i8, double }
%"class.Ipopt::Vector.base" = type <{ %"class.Ipopt::TaggedObject", %"class.Ipopt::SmartPtr.2", %"class.Ipopt::CachedResults", i32, [4 x i8], double, i32, [4 x i8], double, i32, [4 x i8], double, i32, [4 x i8], double, i32, [4 x i8], double, i32, [4 x i8], double, i32, [4 x i8], double, i32, i8 }>
%"class.Ipopt::CachedResults" = type { ptr, i32, ptr }

; Function Attrs: mustprogress nounwind uwtable
define linkonce_odr noundef ptr @_ZNK5Ipopt20ExpansionMatrixSpace20CompressedPosIndicesEv(ptr noundef nonnull align 8 dereferenceable(40) %0) #5 comdat align 2 {
  %2 = alloca ptr, align 8
  store ptr %0, ptr %2, align 8, !tbaa !260
  %3 = load ptr, ptr %2, align 8
  %4 = getelementptr inbounds nuw %"class.Ipopt::ExpansionMatrixSpace", ptr %3, i32 0, i32 2
  %5 = load ptr, ptr %4, align 8, !tbaa !635
  ret ptr %5
}

; Function Attrs: mustprogress nounwind uwtable
define linkonce_odr noundef zeroext i1 @_ZN5Ipopt6IsNullINS_15ExpansionMatrixEEEbRKNS_8SmartPtrIT_EE(ptr noundef nonnull align 8 dereferenceable(8) %0) #5 comdat {
  %2 = alloca ptr, align 8
  store ptr %0, ptr %2, align 8, !tbaa !82
  %3 = load ptr, ptr %2, align 8, !tbaa !82
  %4 = getelementptr inbounds nuw %"class.Ipopt::SmartPtr.5", ptr %3, i32 0, i32 0
  %5 = load ptr, ptr %4, align 8, !tbaa !84
  %6 = icmp eq ptr %5, null
  ret i1 %6
}

; Function Attrs: inlinehint mustprogress nounwind uwtable
define linkonce_odr noundef ptr @_ZNK5Ipopt11DenseVector6ValuesEv(ptr noundef nonnull align 8 dereferenceable(248) %0) #11 comdat align 2 {
  %2 = alloca ptr, align 8
  store ptr %0, ptr %2, align 8, !tbaa !319
  %3 = load ptr, ptr %2, align 8
  %4 = getelementptr inbounds nuw %"class.Ipopt::DenseVector", ptr %3, i32 0, i32 2
  %5 = load ptr, ptr %4, align 8, !tbaa !335
  ret ptr %5
}

; Function Attrs: mustprogress nounwind uwtable
define linkonce_odr noundef double @_ZNK5Ipopt11DenseVector6ScalarEv(ptr noundef nonnull align 8 dereferenceable(248) %0) #5 comdat align 2 {
  %2 = alloca ptr, align 8
  store ptr %0, ptr %2, align 8, !tbaa !319
  %3 = load ptr, ptr %2, align 8
  %4 = getelementptr inbounds nuw %"class.Ipopt::DenseVector", ptr %3, i32 0, i32 6
  %5 = load double, ptr %4, align 8, !tbaa !428
  ret double %5
}

; Function Attrs: mustprogress nounwind uwtable
define linkonce_odr noundef zeroext i1 @_ZNK5Ipopt11DenseVector13IsHomogeneousEv(ptr noundef nonnull align 8 dereferenceable(248) %0) #5 comdat align 2 {
  %2 = alloca ptr, align 8
  store ptr %0, ptr %2, align 8, !tbaa !319
  %3 = load ptr, ptr %2, align 8
  %4 = getelementptr inbounds nuw %"class.Ipopt::DenseVector", ptr %3, i32 0, i32 5
  %5 = load i8, ptr %4, align 1, !tbaa !334, !range !134, !noundef !135
  %6 = trunc i8 %5 to i1
  ret i1 %6
}

; Function Attrs: inlinehint mustprogress uwtable
define linkonce_odr noundef ptr @_ZNK5Ipopt15ExpansionMatrix20CompressedPosIndicesEv(ptr noundef nonnull align 8 dereferenceable(80) %0) #10 comdat align 2 {
  %2 = alloca ptr, align 8
  store ptr %0, ptr %2, align 8, !tbaa !261
  %3 = load ptr, ptr %2, align 8
  %4 = getelementptr inbounds nuw %"class.Ipopt::ExpansionMatrix", ptr %3, i32 0, i32 1
  %5 = load ptr, ptr %4, align 8, !tbaa !272
  %6 = call noundef ptr @_ZNK5Ipopt20ExpansionMatrixSpace20CompressedPosIndicesEv(ptr noundef nonnull align 8 dereferenceable(40) %5)
  ret ptr %6
}

; Function Attrs: mustprogress nounwind uwtable
define linkonce_odr noundef ptr @_ZNK5Ipopt8SmartPtrINS_15ExpansionMatrixEEptEv(ptr noundef nonnull align 8 dereferenceable(8) %0) #5 comdat align 2 {
  %2 = alloca ptr, align 8
  store ptr %0, ptr %2, align 8, !tbaa !82
  %3 = load ptr, ptr %2, align 8
  %4 = getelementptr inbounds nuw %"class.Ipopt::SmartPtr.5", ptr %3, i32 0, i32 0
  %5 = load ptr, ptr %4, align 8, !tbaa !84
  ret ptr %5
}

; Function Attrs: mustprogress uwtable
define linkonce_odr noundef zeroext i1 @_ZN5Ipopt7IsValidINS_15ExpansionMatrixEEEbRKNS_8SmartPtrIT_EE(ptr noundef nonnull align 8 dereferenceable(8) %0) #4 comdat {
  %2 = alloca ptr, align 8
  store ptr %0, ptr %2, align 8, !tbaa !82
  %3 = load ptr, ptr %2, align 8, !tbaa !82
  %4 = call noundef zeroext i1 @_ZN5Ipopt6IsNullINS_15ExpansionMatrixEEEbRKNS_8SmartPtrIT_EE(ptr noundef nonnull align 8 dereferenceable(8) %3)
  %5 = xor i1 %4, true
  ret i1 %5
}

; Function Attrs: mustprogress uwtable
define void @_ZN5Ipopt11TNLPAdapter7ResortXERKNS_6VectorEPdb(ptr noundef nonnull align 8 dereferenceable(600) %0, ptr noundef nonnull align 8 dereferenceable(205) %1, ptr noundef %2, i1 noundef zeroext %3) #4 align 2 {
  %5 = alloca ptr, align 8
  %6 = alloca ptr, align 8
  %7 = alloca ptr, align 8
  %8 = alloca i8, align 1
  %9 = alloca ptr, align 8
  %10 = alloca ptr, align 8
  %11 = alloca ptr, align 8
  %12 = alloca double, align 8
  %13 = alloca i32, align 4
  %14 = alloca i32, align 4
  %15 = alloca ptr, align 8
  %16 = alloca i32, align 4
  %17 = alloca i32, align 4
  %18 = alloca ptr, align 8
  %19 = alloca double, align 8
  store ptr %0, ptr %5, align 8, !tbaa !3
  store ptr %1, ptr %6, align 8, !tbaa !314
  store ptr %2, ptr %7, align 8, !tbaa !142
  %20 = zext i1 %3 to i8
  store i8 %20, ptr %8, align 1, !tbaa !133
  %21 = load ptr, ptr %5, align 8
  call void @llvm.lifetime.start.p0(i64 8, ptr %9) #3
  %22 = load ptr, ptr %6, align 8, !tbaa !314
  store ptr %22, ptr %9, align 8, !tbaa !319
  %23 = getelementptr inbounds nuw %"class.Ipopt::TNLPAdapter", ptr %21, i32 0, i32 56
  %24 = call noundef zeroext i1 @_ZN5Ipopt7IsValidINS_15ExpansionMatrixEEEbRKNS_8SmartPtrIT_EE(ptr noundef nonnull align 8 dereferenceable(8) %23)
  br i1 %24, label %25, label %133

25:                                               ; preds = %4
  call void @llvm.lifetime.start.p0(i64 8, ptr %10) #3
  %26 = getelementptr inbounds nuw %"class.Ipopt::TNLPAdapter", ptr %21, i32 0, i32 56
  %27 = call noundef ptr @_ZNK5Ipopt8SmartPtrINS_15ExpansionMatrixEEptEv(ptr noundef nonnull align 8 dereferenceable(8) %26)
  %28 = call noundef ptr @_ZNK5Ipopt15ExpansionMatrix20CompressedPosIndicesEv(ptr noundef nonnull align 8 dereferenceable(80) %27)
  store ptr %28, ptr %10, align 8, !tbaa !143
  %29 = load ptr, ptr %9, align 8, !tbaa !319
  %30 = call noundef zeroext i1 @_ZNK5Ipopt11DenseVector13IsHomogeneousEv(ptr noundef nonnull align 8 dereferenceable(248) %29)
  br i1 %30, label %31, label %80

31:                                               ; preds = %25
  call void @llvm.lifetime.start.p0(i64 8, ptr %11) #3
  call void @llvm.lifetime.start.p0(i64 8, ptr %12) #3
  %32 = load ptr, ptr %9, align 8, !tbaa !319
  %33 = call noundef double @_ZNK5Ipopt11DenseVector6ScalarEv(ptr noundef nonnull align 8 dereferenceable(248) %32)
  store double %33, ptr %12, align 8, !tbaa !145
  store ptr %12, ptr %11, align 8, !tbaa !142
  call void @llvm.lifetime.start.p0(i64 4, ptr %13) #3
  store i32 0, ptr %13, align 4, !tbaa !98
  br label %34

34:                                               ; preds = %76, %31
  %35 = load i32, ptr %13, align 4, !tbaa !98
  %36 = getelementptr inbounds nuw %"class.Ipopt::TNLPAdapter", ptr %21, i32 0, i32 22
  %37 = load i32, ptr %36, align 8, !tbaa !138
  %38 = icmp slt i32 %35, %37
  br i1 %38, label %40, label %39

39:                                               ; preds = %34
  call void @llvm.lifetime.end.p0(i64 4, ptr %13) #3
  br label %79

40:                                               ; preds = %34
  call void @llvm.lifetime.start.p0(i64 4, ptr %14) #3
  %41 = load ptr, ptr %10, align 8, !tbaa !143
  %42 = load i32, ptr %13, align 4, !tbaa !98
  %43 = sext i32 %42 to i64
  %44 = getelementptr inbounds i32, ptr %41, i64 %43
  %45 = load i32, ptr %44, align 4, !tbaa !98
  store i32 %45, ptr %14, align 4, !tbaa !98
  %46 = load i32, ptr %14, align 4, !tbaa !98
  %47 = icmp ne i32 %46, -1
  br i1 %47, label %48, label %55

48:                                               ; preds = %40
  %49 = load ptr, ptr %11, align 8, !tbaa !142
  %50 = load double, ptr %49, align 8, !tbaa !145
  %51 = load ptr, ptr %7, align 8, !tbaa !142
  %52 = load i32, ptr %13, align 4, !tbaa !98
  %53 = sext i32 %52 to i64
  %54 = getelementptr inbounds double, ptr %51, i64 %53
  store double %50, ptr %54, align 8, !tbaa !145
  br label %75

55:                                               ; preds = %40
  %56 = load i8, ptr %8, align 1, !tbaa !133, !range !134, !noundef !135
  %57 = trunc i8 %56 to i1
  br i1 %57, label %58, label %69

58:                                               ; preds = %55
  %59 = getelementptr inbounds nuw %"class.Ipopt::TNLPAdapter", ptr %21, i32 0, i32 46
  %60 = load ptr, ptr %59, align 8, !tbaa !14
  %61 = load i32, ptr %13, align 4, !tbaa !98
  %62 = sext i32 %61 to i64
  %63 = getelementptr inbounds double, ptr %60, i64 %62
  %64 = load double, ptr %63, align 8, !tbaa !145
  %65 = load ptr, ptr %7, align 8, !tbaa !142
  %66 = load i32, ptr %13, align 4, !tbaa !98
  %67 = sext i32 %66 to i64
  %68 = getelementptr inbounds double, ptr %65, i64 %67
  store double %64, ptr %68, align 8, !tbaa !145
  br label %74

69:                                               ; preds = %55
  %70 = load ptr, ptr %7, align 8, !tbaa !142
  %71 = load i32, ptr %13, align 4, !tbaa !98
  %72 = sext i32 %71 to i64
  %73 = getelementptr inbounds double, ptr %70, i64 %72
  store double 0.000000e+00, ptr %73, align 8, !tbaa !145
  br label %74

74:                                               ; preds = %69, %58
  br label %75

75:                                               ; preds = %74, %48
  call void @llvm.lifetime.end.p0(i64 4, ptr %14) #3
  br label %76

76:                                               ; preds = %75
  %77 = load i32, ptr %13, align 4, !tbaa !98
  %78 = add nsw i32 %77, 1
  store i32 %78, ptr %13, align 4, !tbaa !98
  br label %34, !llvm.loop !387

79:                                               ; preds = %39
  call void @llvm.lifetime.end.p0(i64 8, ptr %12) #3
  call void @llvm.lifetime.end.p0(i64 8, ptr %11) #3
  br label %132

80:                                               ; preds = %25
  call void @llvm.lifetime.start.p0(i64 8, ptr %15) #3
  %81 = load ptr, ptr %9, align 8, !tbaa !319
  %82 = call noundef ptr @_ZNK5Ipopt11DenseVector6ValuesEv(ptr noundef nonnull align 8 dereferenceable(248) %81)
  store ptr %82, ptr %15, align 8, !tbaa !142
  call void @llvm.lifetime.start.p0(i64 4, ptr %16) #3
  store i32 0, ptr %16, align 4, !tbaa !98
  br label %83

83:                                               ; preds = %128, %80
  %84 = load i32, ptr %16, align 4, !tbaa !98
  %85 = getelementptr inbounds nuw %"class.Ipopt::TNLPAdapter", ptr %21, i32 0, i32 22
  %86 = load i32, ptr %85, align 8, !tbaa !138
  %87 = icmp slt i32 %84, %86
  br i1 %87, label %89, label %88

88:                                               ; preds = %83
  call void @llvm.lifetime.end.p0(i64 4, ptr %16) #3
  br label %131

89:                                               ; preds = %83
  call void @llvm.lifetime.start.p0(i64 4, ptr %17) #3
  %90 = load ptr, ptr %10, align 8, !tbaa !143
  %91 = load i32, ptr %16, align 4, !tbaa !98
  %92 = sext i32 %91 to i64
  %93 = getelementptr inbounds i32, ptr %90, i64 %92
  %94 = load i32, ptr %93, align 4, !tbaa !98
  store i32 %94, ptr %17, align 4, !tbaa !98
  %95 = load i32, ptr %17, align 4, !tbaa !98
  %96 = icmp ne i32 %95, -1
  br i1 %96, label %97, label %107

97:                                               ; preds = %89
  %98 = load ptr, ptr %15, align 8, !tbaa !142
  %99 = load i32, ptr %17, align 4, !tbaa !98
  %100 = sext i32 %99 to i64
  %101 = getelementptr inbounds double, ptr %98, i64 %100
  %102 = load double, ptr %101, align 8, !tbaa !145
  %103 = load ptr, ptr %7, align 8, !tbaa !142
  %104 = load i32, ptr %16, align 4, !tbaa !98
  %105 = sext i32 %104 to i64
  %106 = getelementptr inbounds double, ptr %103, i64 %105
  store double %102, ptr %106, align 8, !tbaa !145
  br label %127

107:                                              ; preds = %89
  %108 = load i8, ptr %8, align 1, !tbaa !133, !range !134, !noundef !135
  %109 = trunc i8 %108 to i1
  br i1 %109, label %110, label %121

110:                                              ; preds = %107
  %111 = getelementptr inbounds nuw %"class.Ipopt::TNLPAdapter", ptr %21, i32 0, i32 46
  %112 = load ptr, ptr %111, align 8, !tbaa !14
  %113 = load i32, ptr %16, align 4, !tbaa !98
  %114 = sext i32 %113 to i64
  %115 = getelementptr inbounds double, ptr %112, i64 %114
  %116 = load double, ptr %115, align 8, !tbaa !145
  %117 = load ptr, ptr %7, align 8, !tbaa !142
  %118 = load i32, ptr %16, align 4, !tbaa !98
  %119 = sext i32 %118 to i64
  %120 = getelementptr inbounds double, ptr %117, i64 %119
  store double %116, ptr %120, align 8, !tbaa !145
  br label %126

121:                                              ; preds = %107
  %122 = load ptr, ptr %7, align 8, !tbaa !142
  %123 = load i32, ptr %16, align 4, !tbaa !98
  %124 = sext i32 %123 to i64
  %125 = getelementptr inbounds double, ptr %122, i64 %124
  store double 0.000000e+00, ptr %125, align 8, !tbaa !145
  br label %126

126:                                              ; preds = %121, %110
  br label %127

127:                                              ; preds = %126, %97
  call void @llvm.lifetime.end.p0(i64 4, ptr %17) #3
  br label %128

128:                                              ; preds = %127
  %129 = load i32, ptr %16, align 4, !tbaa !98
  %130 = add nsw i32 %129, 1
  store i32 %130, ptr %16, align 4, !tbaa !98
  br label %83, !llvm.loop !388

131:                                              ; preds = %88
  call void @llvm.lifetime.end.p0(i64 8, ptr %15) #3
  br label %132

132:                                              ; preds = %131, %79
  call void @llvm.lifetime.end.p0(i64 8, ptr %10) #3
  br label %150

133:                                              ; preds = %4
  %134 = load ptr, ptr %9, align 8, !tbaa !319
  %135 = call noundef zeroext i1 @_ZNK5Ipopt11DenseVector13IsHomogeneousEv(ptr noundef nonnull align 8 dereferenceable(248) %134)
  br i1 %135, label %136, label %143

136:                                              ; preds = %133
  call void @llvm.lifetime.start.p0(i64 8, ptr %18) #3
  call void @llvm.lifetime.start.p0(i64 8, ptr %19) #3
  %137 = load ptr, ptr %9, align 8, !tbaa !319
  %138 = call noundef double @_ZNK5Ipopt11DenseVector6ScalarEv(ptr noundef nonnull align 8 dereferenceable(248) %137)
  store double %138, ptr %19, align 8, !tbaa !145
  store ptr %19, ptr %18, align 8, !tbaa !142
  %139 = getelementptr inbounds nuw %"class.Ipopt::TNLPAdapter", ptr %21, i32 0, i32 22
  %140 = load i32, ptr %139, align 8, !tbaa !138
  %141 = load ptr, ptr %18, align 8, !tbaa !142
  %142 = load ptr, ptr %7, align 8, !tbaa !142
  call void @_ZN5Ipopt10IpBlasCopyEiPKdiPdi(i32 noundef %140, ptr noundef %141, i32 noundef 0, ptr noundef %142, i32 noundef 1)
  call void @llvm.lifetime.end.p0(i64 8, ptr %19) #3
  call void @llvm.lifetime.end.p0(i64 8, ptr %18) #3
  br label %149

143:                                              ; preds = %133
  %144 = getelementptr inbounds nuw %"class.Ipopt::TNLPAdapter", ptr %21, i32 0, i32 22
  %145 = load i32, ptr %144, align 8, !tbaa !138
  %146 = load ptr, ptr %9, align 8, !tbaa !319
  %147 = call noundef ptr @_ZNK5Ipopt11DenseVector6ValuesEv(ptr noundef nonnull align 8 dereferenceable(248) %146)
  %148 = load ptr, ptr %7, align 8, !tbaa !142
  call void @_ZN5Ipopt10IpBlasCopyEiPKdiPdi(i32 noundef %145, ptr noundef %147, i32 noundef 1, ptr noundef %148, i32 noundef 1)
  br label %149

149:                                              ; preds = %143, %136
  br label %150

150:                                              ; preds = %149, %132
  call void @llvm.lifetime.end.p0(i64 8, ptr %9) #3
  ret void
}