; Function Attrs: mustprogress uwtable
define void @_ZN5Ipopt11TNLPAdapter7ResortXERKNS_6VectorEPdb(ptr noundef nonnull readonly align 8 captures(none) dereferenceable(600) %0, ptr noundef nonnull readonly align 8 captures(none) dereferenceable(205) %1, ptr noundef %2, i1 noundef zeroext %3) local_unnamed_addr #3 align 2 {
  %5 = alloca double, align 8
  %6 = getelementptr inbounds nuw i8, ptr %0, i64 376
  %7 = load ptr, ptr %6, align 8, !tbaa !31
  %.not42 = icmp eq ptr %7, null
  br i1 %.not42, label %53, label %8

8:                                                ; preds = %4
  %9 = getelementptr inbounds nuw i8, ptr %7, i64 72
  %10 = load ptr, ptr %9, align 8, !tbaa !143
  %11 = getelementptr inbounds nuw i8, ptr %10, i64 32
  %12 = load ptr, ptr %11, align 8, !tbaa !193
  %13 = getelementptr inbounds nuw i8, ptr %1, i64 233
  %14 = load i8, ptr %13, align 1, !tbaa !252, !range !106, !noundef !107
  %15 = trunc nuw i8 %14 to i1
  %16 = getelementptr inbounds nuw i8, ptr %0, i64 160
  %17 = load i32, ptr %16, align 8, !tbaa !109
  %18 = icmp sgt i32 %17, 0
  br i1 %15, label %19, label %34

19:                                               ; preds = %8
  %20 = getelementptr inbounds nuw i8, ptr %1, i64 240
  %21 = load double, ptr %20, align 8, !tbaa !297
  br i1 %18, label %.lr.ph46, label %.loopexit

.lr.ph46:                                         ; preds = %19
  %22 = getelementptr inbounds nuw i8, ptr %0, i64 312
  %23 = load ptr, ptr %22, align 8
  %wide.trip.count64 = zext nneg i32 %17 to i64
  br i1 %3, label %.lr.ph46.split.us, label %.lr.ph46.split

.lr.ph46.split.us:                                ; preds = %.lr.ph46, %29
  %indvars.iv61 = phi i64 [ %indvars.iv.next62, %29 ], [ 0, %.lr.ph46 ]
  %24 = getelementptr inbounds nuw i32, ptr %12, i64 %indvars.iv61
  %25 = load i32, ptr %24, align 4, !tbaa !87
  %.not41.us = icmp eq i32 %25, -1
  br i1 %.not41.us, label %26, label %29

26:                                               ; preds = %.lr.ph46.split.us
  %27 = getelementptr inbounds nuw double, ptr %23, i64 %indvars.iv61
  %28 = load double, ptr %27, align 8, !tbaa !123
  br label %29

29:                                               ; preds = %.lr.ph46.split.us, %26
  %.sink = phi double [ %28, %26 ], [ %21, %.lr.ph46.split.us ]
  %30 = getelementptr inbounds nuw double, ptr %2, i64 %indvars.iv61
  store double %.sink, ptr %30, align 8, !tbaa !123
  %indvars.iv.next62 = add nuw nsw i64 %indvars.iv61, 1
  %exitcond65.not = icmp eq i64 %indvars.iv.next62, %wide.trip.count64
  br i1 %exitcond65.not, label %.loopexit, label %.lr.ph46.split.us, !llvm.loop !336

.lr.ph46.split:                                   ; preds = %.lr.ph46, %.lr.ph46.split
  %indvars.iv56 = phi i64 [ %indvars.iv.next57, %.lr.ph46.split ], [ 0, %.lr.ph46 ]
  %31 = getelementptr inbounds nuw i32, ptr %12, i64 %indvars.iv56
  %32 = load i32, ptr %31, align 4, !tbaa !87
  %.not41 = icmp eq i32 %32, -1
  %.sink66 = select i1 %.not41, double 0.000000e+00, double %21
  %33 = getelementptr inbounds nuw double, ptr %2, i64 %indvars.iv56
  store double %.sink66, ptr %33, align 8, !tbaa !123
  %indvars.iv.next57 = add nuw nsw i64 %indvars.iv56, 1
  %exitcond60.not = icmp eq i64 %indvars.iv.next57, %wide.trip.count64
  br i1 %exitcond60.not, label %.loopexit, label %.lr.ph46.split, !llvm.loop !336

34:                                               ; preds = %8
  %35 = getelementptr inbounds nuw i8, ptr %1, i64 216
  %36 = load ptr, ptr %35, align 8, !tbaa !253
  br i1 %18, label %.lr.ph, label %.loopexit

.lr.ph:                                           ; preds = %34
  %37 = getelementptr inbounds nuw i8, ptr %0, i64 312
  %38 = load ptr, ptr %37, align 8
  %wide.trip.count54 = zext nneg i32 %17 to i64
  br i1 %3, label %.lr.ph.split.us, label %.lr.ph.split

.lr.ph.split.us:                                  ; preds = %.lr.ph, %.lr.ph.split.us
  %indvars.iv51 = phi i64 [ %indvars.iv.next52, %.lr.ph.split.us ], [ 0, %.lr.ph ]
  %39 = getelementptr inbounds nuw i32, ptr %12, i64 %indvars.iv51
  %40 = load i32, ptr %39, align 4, !tbaa !87
  %.not.us = icmp eq i32 %40, -1
  %41 = getelementptr inbounds nuw double, ptr %38, i64 %indvars.iv51
  %42 = sext i32 %40 to i64
  %43 = getelementptr inbounds double, ptr %36, i64 %42
  %.sink67.in = select i1 %.not.us, ptr %41, ptr %43
  %.sink67 = load double, ptr %.sink67.in, align 8, !tbaa !123
  %44 = getelementptr inbounds nuw double, ptr %2, i64 %indvars.iv51
  store double %.sink67, ptr %44, align 8, !tbaa !123
  %indvars.iv.next52 = add nuw nsw i64 %indvars.iv51, 1
  %exitcond55.not = icmp eq i64 %indvars.iv.next52, %wide.trip.count54
  br i1 %exitcond55.not, label %.loopexit, label %.lr.ph.split.us, !llvm.loop !337

.lr.ph.split:                                     ; preds = %.lr.ph, %51
  %indvars.iv = phi i64 [ %indvars.iv.next, %51 ], [ 0, %.lr.ph ]
  %45 = getelementptr inbounds nuw i32, ptr %12, i64 %indvars.iv
  %46 = load i32, ptr %45, align 4, !tbaa !87
  %.not = icmp eq i32 %46, -1
  br i1 %.not, label %51, label %47

47:                                               ; preds = %.lr.ph.split
  %48 = sext i32 %46 to i64
  %49 = getelementptr inbounds double, ptr %36, i64 %48
  %50 = load double, ptr %49, align 8, !tbaa !123
  br label %51

51:                                               ; preds = %.lr.ph.split, %47
  %.sink68 = phi double [ %50, %47 ], [ 0.000000e+00, %.lr.ph.split ]
  %52 = getelementptr inbounds nuw double, ptr %2, i64 %indvars.iv
  store double %.sink68, ptr %52, align 8, !tbaa !123
  %indvars.iv.next = add nuw nsw i64 %indvars.iv, 1
  %exitcond.not = icmp eq i64 %indvars.iv.next, %wide.trip.count54
  br i1 %exitcond.not, label %.loopexit, label %.lr.ph.split, !llvm.loop !337

53:                                               ; preds = %4
  %54 = getelementptr inbounds nuw i8, ptr %1, i64 233
  %55 = load i8, ptr %54, align 1, !tbaa !252, !range !106, !noundef !107
  %56 = trunc nuw i8 %55 to i1
  br i1 %56, label %57, label %62

57:                                               ; preds = %53
  call void @llvm.lifetime.start.p0(i64 8, ptr nonnull %5) #26
  %58 = getelementptr inbounds nuw i8, ptr %1, i64 240
  %59 = load double, ptr %58, align 8, !tbaa !297
  store double %59, ptr %5, align 8, !tbaa !123
  %60 = getelementptr inbounds nuw i8, ptr %0, i64 160
  %61 = load i32, ptr %60, align 8, !tbaa !109
  call void @_ZN5Ipopt10IpBlasCopyEiPKdiPdi(i32 noundef %61, ptr noundef nonnull %5, i32 noundef 0, ptr noundef %2, i32 noundef 1)
  call void @llvm.lifetime.end.p0(i64 8, ptr nonnull %5) #26
  br label %.loopexit

62:                                               ; preds = %53
  %63 = getelementptr inbounds nuw i8, ptr %0, i64 160
  %64 = load i32, ptr %63, align 8, !tbaa !109
  %65 = getelementptr inbounds nuw i8, ptr %1, i64 216
  %66 = load ptr, ptr %65, align 8, !tbaa !253
  tail call void @_ZN5Ipopt10IpBlasCopyEiPKdiPdi(i32 noundef %64, ptr noundef %66, i32 noundef 1, ptr noundef %2, i32 noundef 1)
  br label %.loopexit

.loopexit:                                        ; preds = %51, %.lr.ph.split.us, %.lr.ph46.split, %29, %34, %19, %57, %62
  ret void
}